; Function Attrs: mustprogress nounwind uwtable
define internal fastcc void @_ZN12_GLOBAL__N_111ModelledPHI11createDummyEm(ptr dead_on_unwind noalias nonnull writable align 8 %0, i64 noundef %1) unnamed_addr #0 align 2 {
  %3 = getelementptr inbounds i8, ptr %0, i64 16
  tail call void @_ZN4llvm15SmallVectorBaseIjEC2EPvm(ptr noundef nonnull align 8 dereferenceable(16) %0, ptr noundef nonnull %3, i64 noundef 4) #19
  %4 = getelementptr inbounds nuw i8, ptr %0, i64 48
  %5 = getelementptr inbounds i8, ptr %0, i64 64
  tail call void @_ZN4llvm15SmallVectorBaseIjEC2EPvm(ptr noundef nonnull align 8 dereferenceable(16) %4, ptr noundef nonnull %5, i64 noundef 4) #19
  %6 = tail call noundef i64 @_ZNK4llvm15SmallVectorBaseIjE4sizeEv(ptr noundef nonnull align 8 dereferenceable(16) %0) #19
  %7 = add i64 %6, 1
  %8 = tail call noundef i64 @_ZNK4llvm15SmallVectorBaseIjE8capacityEv(ptr noundef nonnull align 8 dereferenceable(16) %0) #19
  %.not.i.i.i = icmp ugt i64 %7, %8
  br i1 %.not.i.i.i, label %9, label %_ZN4llvm23SmallVectorTemplateBaseIPNS_5ValueELb1EE9push_backES2_.exit

9:                                                ; preds = %2
  tail call void @_ZN4llvm15SmallVectorBaseIjE8grow_podEPvmm(ptr noundef nonnull align 8 dereferenceable(16) %0, ptr noundef nonnull %3, i64 noundef %7, i64 noundef 8) #19
  br label %_ZN4llvm23SmallVectorTemplateBaseIPNS_5ValueELb1EE9push_backES2_.exit

_ZN4llvm23SmallVectorTemplateBaseIPNS_5ValueELb1EE9push_backES2_.exit: ; preds = %2, %9
  %10 = load ptr, ptr %0, align 8
  %11 = tail call noundef i64 @_ZNK4llvm15SmallVectorBaseIjE4sizeEv(ptr noundef nonnull align 8 dereferenceable(16) %0) #19
  %12 = getelementptr inbounds ptr, ptr %10, i64 %11
  store i64 %1, ptr %12, align 1
  %13 = tail call noundef i64 @_ZNK4llvm15SmallVectorBaseIjE4sizeEv(ptr noundef nonnull align 8 dereferenceable(16) %0) #19
  %14 = add i64 %13, 1
  tail call void @_ZN4llvm15SmallVectorBaseIjE8set_sizeEm(ptr noundef nonnull align 8 dereferenceable(16) %0, i64 noundef %14) #19
  ret void
}